target datalayout = "e-m:e-p270:32:32-p271:32:32-p272:64:64-i64:64-i128:128-f80:128-n8:16:32:64-S128"
target triple = "x86_64-pc-linux-gnu"

%struct.ossl_passphrase_data_st = type { i32, %union.anon, i8, ptr, i64 }
%union.anon = type { %struct.anon }
%struct.anon = type { ptr, i64 }
%struct.ossl_store_ctx_st = type { ptr, ptr, ptr, ptr, ptr, i32, ptr, i32, i32, ptr, %struct.ossl_passphrase_data_st }
%struct.ossl_store_loader_st = type { ptr, ptr, ptr, ptr, ptr, ptr, ptr, ptr, ptr, ptr, ptr, ptr, ptr, i32, ptr, ptr, %struct.CRYPTO_REF_COUNT, ptr, ptr, ptr, ptr, ptr, ptr, ptr, ptr, ptr, ptr }
%struct.CRYPTO_REF_COUNT = type { i32 }
%struct.ossl_param_st = type { ptr, i32, ptr, i64, i64 }

@.str = private unnamed_addr constant [5 x i8] c"file\00", align 1
@.str.2 = private unnamed_addr constant [36 x i8] c"../openssl/crypto/store/store_lib.c\00", align 1
@.str.13 = private unnamed_addr constant [11 x i8] c"properties\00", align 1

; Function Attrs: nounwind uwtable
define internal i32 @loader_set_params(ptr noundef %0, ptr noundef %1, ptr noundef %2, ptr noundef %3) #0 {
  %5 = alloca i32, align 4
  %6 = alloca ptr, align 8
  %7 = alloca ptr, align 8
  %8 = alloca ptr, align 8
  %9 = alloca ptr, align 8
  %10 = alloca [2 x %struct.ossl_param_st], align 16
  %11 = alloca i32, align 4
  %12 = alloca %struct.ossl_param_st, align 8
  %13 = alloca %struct.ossl_param_st, align 8
  store ptr %0, ptr %6, align 8, !tbaa !15
  store ptr %1, ptr %7, align 8, !tbaa !17
  store ptr %2, ptr %8, align 8, !tbaa !13
  store ptr %3, ptr %9, align 8, !tbaa !3
  %14 = load ptr, ptr %8, align 8, !tbaa !13
  %15 = icmp ne ptr %14, null
  br i1 %15, label %16, label %26

16:                                               ; preds = %4
  %17 = load ptr, ptr %6, align 8, !tbaa !15
  %18 = getelementptr inbounds nuw %struct.ossl_store_loader_st, ptr %17, i32 0, i32 20
  %19 = load ptr, ptr %18, align 8, !tbaa !48
  %20 = load ptr, ptr %7, align 8, !tbaa !17
  %21 = load ptr, ptr %8, align 8, !tbaa !13
  %22 = call i32 %19(ptr noundef %20, ptr noundef %21)
  %23 = icmp ne i32 %22, 0
  br i1 %23, label %25, label %24

24:                                               ; preds = %16
  store i32 0, ptr %5, align 4
  br label %51

25:                                               ; preds = %16
  br label %26

26:                                               ; preds = %25, %4
  %27 = load ptr, ptr %9, align 8, !tbaa !3
  %28 = icmp ne ptr %27, null
  br i1 %28, label %29, label %50

29:                                               ; preds = %26
  call void @llvm.lifetime.start.p0(i64 80, ptr %10) #8
  %30 = load ptr, ptr %8, align 8, !tbaa !13
  %31 = call ptr @OSSL_PARAM_locate_const(ptr noundef %30, ptr noundef @.str.13)
  %32 = icmp ne ptr %31, null
  br i1 %32, label %33, label %34

33:                                               ; preds = %29
  store i32 1, ptr %5, align 4
  store i32 1, ptr %11, align 4
  br label %47

34:                                               ; preds = %29
  %35 = getelementptr inbounds [2 x %struct.ossl_param_st], ptr %10, i64 0, i64 0
  call void @llvm.lifetime.start.p0(i64 40, ptr %12) #8
  %36 = load ptr, ptr %9, align 8, !tbaa !3
  call void @OSSL_PARAM_construct_utf8_string(ptr dead_on_unwind writable sret(%struct.ossl_param_st) align 8 %12, ptr noundef @.str.13, ptr noundef %36, i64 noundef 0)
  call void @llvm.memcpy.p0.p0.i64(ptr align 16 %35, ptr align 8 %12, i64 40, i1 false), !tbaa.struct !49
  call void @llvm.lifetime.end.p0(i64 40, ptr %12) #8
  %37 = getelementptr inbounds [2 x %struct.ossl_param_st], ptr %10, i64 0, i64 1
  call void @llvm.lifetime.start.p0(i64 40, ptr %13) #8
  call void @OSSL_PARAM_construct_end(ptr dead_on_unwind writable sret(%struct.ossl_param_st) align 8 %13)
  call void @llvm.memcpy.p0.p0.i64(ptr align 8 %37, ptr align 8 %13, i64 40, i1 false), !tbaa.struct !49
  call void @llvm.lifetime.end.p0(i64 40, ptr %13) #8
  %38 = load ptr, ptr %6, align 8, !tbaa !15
  %39 = getelementptr inbounds nuw %struct.ossl_store_loader_st, ptr %38, i32 0, i32 20
  %40 = load ptr, ptr %39, align 8, !tbaa !48
  %41 = load ptr, ptr %7, align 8, !tbaa !17
  %42 = getelementptr inbounds [2 x %struct.ossl_param_st], ptr %10, i64 0, i64 0
  %43 = call i32 %40(ptr noundef %41, ptr noundef %42)
  %44 = icmp ne i32 %43, 0
  br i1 %44, label %46, label %45

45:                                               ; preds = %34
  store i32 0, ptr %5, align 4
  store i32 1, ptr %11, align 4
  br label %47

46:                                               ; preds = %34
  store i32 0, ptr %11, align 4
  br label %47

47:                                               ; preds = %46, %45, %33
  call void @llvm.lifetime.end.p0(i64 80, ptr %10) #8
  %48 = load i32, ptr %11, align 4
  switch i32 %48, label %53 [
    i32 0, label %49
    i32 1, label %51
  ]

49:                                               ; preds = %47
  br label %50

50:                                               ; preds = %49, %26
  store i32 1, ptr %5, align 4
  br label %51

51:                                               ; preds = %50, %47, %24
  %52 = load i32, ptr %5, align 4
  ret i32 %52

53:                                               ; preds = %47
  unreachable
}

; Function Attrs: nounwind uwtable
define ptr @OSSL_STORE_attach(ptr noundef %0, ptr noundef %1, ptr noundef %2, ptr noundef %3, ptr noundef %4, ptr noundef %5, ptr noundef %6, ptr noundef %7, ptr noundef %8) #0 {
  %10 = alloca ptr, align 8
  %11 = alloca ptr, align 8
  %12 = alloca ptr, align 8
  %13 = alloca ptr, align 8
  %14 = alloca ptr, align 8
  %15 = alloca ptr, align 8
  %16 = alloca ptr, align 8
  %17 = alloca ptr, align 8
  %18 = alloca ptr, align 8
  %19 = alloca ptr, align 8
  %20 = alloca ptr, align 8
  %21 = alloca ptr, align 8
  %22 = alloca ptr, align 8
  %23 = alloca ptr, align 8
  %24 = alloca ptr, align 8
  %25 = alloca ptr, align 8
  %26 = alloca ptr, align 8
  %27 = alloca i32, align 4
  store ptr %0, ptr %11, align 8, !tbaa !104
  store ptr %1, ptr %12, align 8, !tbaa !3
  store ptr %2, ptr %13, align 8, !tbaa !8
  store ptr %3, ptr %14, align 8, !tbaa !3
  store ptr %4, ptr %15, align 8, !tbaa !10
  store ptr %5, ptr %16, align 8, !tbaa !12
  store ptr %6, ptr %17, align 8, !tbaa !13
  store ptr %7, ptr %18, align 8, !tbaa !12
  store ptr %8, ptr %19, align 8, !tbaa !12
  call void @llvm.lifetime.start.p0(i64 8, ptr %20) #8
  store ptr null, ptr %20, align 8, !tbaa !15
  call void @llvm.lifetime.start.p0(i64 8, ptr %21) #8
  store ptr null, ptr %21, align 8, !tbaa !15
  call void @llvm.lifetime.start.p0(i64 8, ptr %22) #8
  store ptr null, ptr %22, align 8, !tbaa !17
  call void @llvm.lifetime.start.p0(i64 8, ptr %23) #8
  store ptr null, ptr %23, align 8, !tbaa !19
  %28 = load ptr, ptr %12, align 8, !tbaa !3
  %29 = icmp eq ptr %28, null
  br i1 %29, label %30, label %31

30:                                               ; preds = %9
  store ptr @.str, ptr %12, align 8, !tbaa !3
  br label %31

31:                                               ; preds = %30, %9
  %32 = call i32 @ERR_set_mark()
  %33 = load ptr, ptr %12, align 8, !tbaa !3
  %34 = call ptr @ossl_store_get0_loader_int(ptr noundef %33)
  store ptr %34, ptr %20, align 8, !tbaa !15
  %35 = icmp ne ptr %34, null
  br i1 %35, label %36, label %47

36:                                               ; preds = %31
  %37 = load ptr, ptr %20, align 8, !tbaa !15
  %38 = getelementptr inbounds nuw %struct.ossl_store_loader_st, ptr %37, i32 0, i32 3
  %39 = load ptr, ptr %38, align 8, !tbaa !106
  %40 = load ptr, ptr %20, align 8, !tbaa !15
  %41 = load ptr, ptr %11, align 8, !tbaa !104
  %42 = load ptr, ptr %13, align 8, !tbaa !8
  %43 = load ptr, ptr %14, align 8, !tbaa !3
  %44 = load ptr, ptr %15, align 8, !tbaa !10
  %45 = load ptr, ptr %16, align 8, !tbaa !12
  %46 = call ptr %39(ptr noundef %40, ptr noundef %41, ptr noundef %42, ptr noundef %43, ptr noundef %44, ptr noundef %45)
  store ptr %46, ptr %22, align 8, !tbaa !17
  br label %47

47:                                               ; preds = %36, %31
  %48 = load ptr, ptr %20, align 8, !tbaa !15
  %49 = icmp eq ptr %48, null
  br i1 %49, label %50, label %99

50:                                               ; preds = %47
  %51 = load ptr, ptr %13, align 8, !tbaa !8
  %52 = load ptr, ptr %12, align 8, !tbaa !3
  %53 = load ptr, ptr %14, align 8, !tbaa !3
  %54 = call ptr @OSSL_STORE_LOADER_fetch(ptr noundef %51, ptr noundef %52, ptr noundef %53)
  store ptr %54, ptr %21, align 8, !tbaa !15
  %55 = icmp ne ptr %54, null
  br i1 %55, label %56, label %99

56:                                               ; preds = %50
  call void @llvm.lifetime.start.p0(i64 8, ptr %24) #8
  %57 = load ptr, ptr %21, align 8, !tbaa !15
  %58 = call ptr @OSSL_STORE_LOADER_get0_provider(ptr noundef %57)
  store ptr %58, ptr %24, align 8, !tbaa !32
  call void @llvm.lifetime.start.p0(i64 8, ptr %25) #8
  %59 = load ptr, ptr %24, align 8, !tbaa !32
  %60 = call ptr @OSSL_PROVIDER_get0_provider_ctx(ptr noundef %59)
  store ptr %60, ptr %25, align 8, !tbaa !12
  call void @llvm.lifetime.start.p0(i64 8, ptr %26) #8
  %61 = load ptr, ptr %11, align 8, !tbaa !104
  %62 = call ptr @ossl_core_bio_new_from_bio(ptr noundef %61)
  store ptr %62, ptr %26, align 8, !tbaa !107
  %63 = load ptr, ptr %26, align 8, !tbaa !107
  %64 = icmp eq ptr %63, null
  br i1 %64, label %78, label %65

65:                                               ; preds = %56
  %66 = load ptr, ptr %21, align 8, !tbaa !15
  %67 = getelementptr inbounds nuw %struct.ossl_store_loader_st, ptr %66, i32 0, i32 18
  %68 = load ptr, ptr %67, align 8, !tbaa !109
  %69 = icmp eq ptr %68, null
  br i1 %69, label %78, label %70

70:                                               ; preds = %65
  %71 = load ptr, ptr %21, align 8, !tbaa !15
  %72 = getelementptr inbounds nuw %struct.ossl_store_loader_st, ptr %71, i32 0, i32 18
  %73 = load ptr, ptr %72, align 8, !tbaa !109
  %74 = load ptr, ptr %25, align 8, !tbaa !12
  %75 = load ptr, ptr %26, align 8, !tbaa !107
  %76 = call ptr %73(ptr noundef %74, ptr noundef %75)
  store ptr %76, ptr %22, align 8, !tbaa !17
  %77 = icmp eq ptr %76, null
  br i1 %77, label %78, label %80

78:                                               ; preds = %70, %65, %56
  %79 = load ptr, ptr %21, align 8, !tbaa !15
  call void @OSSL_STORE_LOADER_free(ptr noundef %79)
  store ptr null, ptr %21, align 8, !tbaa !15
  br label %95

80:                                               ; preds = %70
  %81 = load ptr, ptr %21, align 8, !tbaa !15
  %82 = load ptr, ptr %22, align 8, !tbaa !17
  %83 = load ptr, ptr %17, align 8, !tbaa !13
  %84 = load ptr, ptr %14, align 8, !tbaa !3
  %85 = call i32 @loader_set_params(ptr noundef %81, ptr noundef %82, ptr noundef %83, ptr noundef %84)
  %86 = icmp ne i32 %85, 0
  br i1 %86, label %94, label %87

87:                                               ; preds = %80
  %88 = load ptr, ptr %21, align 8, !tbaa !15
  %89 = getelementptr inbounds nuw %struct.ossl_store_loader_st, ptr %88, i32 0, i32 23
  %90 = load ptr, ptr %89, align 8, !tbaa !35
  %91 = load ptr, ptr %22, align 8, !tbaa !17
  %92 = call i32 %90(ptr noundef %91)
  %93 = load ptr, ptr %21, align 8, !tbaa !15
  call void @OSSL_STORE_LOADER_free(ptr noundef %93)
  store ptr null, ptr %21, align 8, !tbaa !15
  br label %94

94:                                               ; preds = %87, %80
  br label %95

95:                                               ; preds = %94, %78
  %96 = load ptr, ptr %21, align 8, !tbaa !15
  store ptr %96, ptr %20, align 8, !tbaa !15
  %97 = load ptr, ptr %26, align 8, !tbaa !107
  %98 = call i32 @ossl_core_bio_free(ptr noundef %97)
  call void @llvm.lifetime.end.p0(i64 8, ptr %26) #8
  call void @llvm.lifetime.end.p0(i64 8, ptr %25) #8
  call void @llvm.lifetime.end.p0(i64 8, ptr %24) #8
  br label %99

99:                                               ; preds = %95, %50, %47
  %100 = load ptr, ptr %22, align 8, !tbaa !17
  %101 = icmp eq ptr %100, null
  br i1 %101, label %102, label %104

102:                                              ; preds = %99
  %103 = call i32 @ERR_clear_last_mark()
  store ptr null, ptr %10, align 8
  store i32 1, ptr %27, align 4
  br label %140

104:                                              ; preds = %99
  %105 = call noalias ptr @CRYPTO_zalloc(i64 noundef 120, ptr noundef @.str.2, i32 noundef 1066)
  store ptr %105, ptr %23, align 8, !tbaa !19
  %106 = icmp eq ptr %105, null
  br i1 %106, label %107, label %109

107:                                              ; preds = %104
  %108 = call i32 @ERR_clear_last_mark()
  store ptr null, ptr %10, align 8
  store i32 1, ptr %27, align 4
  br label %140

109:                                              ; preds = %104
  %110 = load ptr, ptr %15, align 8, !tbaa !10
  %111 = icmp ne ptr %110, null
  br i1 %111, label %112, label %122

112:                                              ; preds = %109
  %113 = load ptr, ptr %23, align 8, !tbaa !19
  %114 = getelementptr inbounds nuw %struct.ossl_store_ctx_st, ptr %113, i32 0, i32 10
  %115 = load ptr, ptr %15, align 8, !tbaa !10
  %116 = load ptr, ptr %16, align 8, !tbaa !12
  %117 = call i32 @ossl_pw_set_ui_method(ptr noundef %114, ptr noundef %115, ptr noundef %116)
  %118 = icmp ne i32 %117, 0
  br i1 %118, label %122, label %119

119:                                              ; preds = %112
  %120 = call i32 @ERR_clear_last_mark()
  %121 = load ptr, ptr %23, align 8, !tbaa !19
  call void @CRYPTO_free(ptr noundef %121, ptr noundef @.str.2, i32 noundef 1074)
  store ptr null, ptr %10, align 8
  store i32 1, ptr %27, align 4
  br label %140

122:                                              ; preds = %112, %109
  %123 = load ptr, ptr %21, align 8, !tbaa !15
  %124 = load ptr, ptr %23, align 8, !tbaa !19
  %125 = getelementptr inbounds nuw %struct.ossl_store_ctx_st, ptr %124, i32 0, i32 1
  store ptr %123, ptr %125, align 8, !tbaa !42
  %126 = load ptr, ptr %20, align 8, !tbaa !15
  %127 = load ptr, ptr %23, align 8, !tbaa !19
  %128 = getelementptr inbounds nuw %struct.ossl_store_ctx_st, ptr %127, i32 0, i32 0
  store ptr %126, ptr %128, align 8, !tbaa !43
  %129 = load ptr, ptr %22, align 8, !tbaa !17
  %130 = load ptr, ptr %23, align 8, !tbaa !19
  %131 = getelementptr inbounds nuw %struct.ossl_store_ctx_st, ptr %130, i32 0, i32 2
  store ptr %129, ptr %131, align 8, !tbaa !44
  %132 = load ptr, ptr %18, align 8, !tbaa !12
  %133 = load ptr, ptr %23, align 8, !tbaa !19
  %134 = getelementptr inbounds nuw %struct.ossl_store_ctx_st, ptr %133, i32 0, i32 3
  store ptr %132, ptr %134, align 8, !tbaa !45
  %135 = load ptr, ptr %19, align 8, !tbaa !12
  %136 = load ptr, ptr %23, align 8, !tbaa !19
  %137 = getelementptr inbounds nuw %struct.ossl_store_ctx_st, ptr %136, i32 0, i32 4
  store ptr %135, ptr %137, align 8, !tbaa !46
  %138 = call i32 @ERR_pop_to_mark()
  %139 = load ptr, ptr %23, align 8, !tbaa !19
  store ptr %139, ptr %10, align 8
  store i32 1, ptr %27, align 4
  br label %140

140:                                              ; preds = %122, %119, %107, %102
  call void @llvm.lifetime.end.p0(i64 8, ptr %23) #8
  call void @llvm.lifetime.end.p0(i64 8, ptr %22) #8
  call void @llvm.lifetime.end.p0(i64 8, ptr %21) #8
  call void @llvm.lifetime.end.p0(i64 8, ptr %20) #8
  %141 = load ptr, ptr %10, align 8
  ret ptr %141
}