; Function Attrs: nounwind uwtable
define ptr @OSSL_STORE_attach(ptr noundef %0, ptr noundef %1, ptr noundef %2, ptr noundef %3, ptr noundef %4, ptr noundef %5, ptr noundef %6, ptr noundef %7, ptr noundef %8) local_unnamed_addr #0 {
  %10 = alloca [2 x %struct.ossl_param_st], align 16
  %11 = alloca %struct.ossl_param_st, align 8
  %12 = icmp eq ptr %1, null
  %spec.store.select = select i1 %12, ptr @.str, ptr %1
  %13 = tail call i32 @ERR_set_mark() #9
  %14 = tail call ptr @ossl_store_get0_loader_int(ptr noundef nonnull %spec.store.select) #9
  %.not = icmp eq ptr %14, null
  br i1 %.not, label %19, label %15

15:                                               ; preds = %9
  %16 = getelementptr inbounds nuw i8, ptr %14, i64 24
  %17 = load ptr, ptr %16, align 8, !tbaa !73
  %18 = tail call ptr %17(ptr noundef nonnull %14, ptr noundef %0, ptr noundef %2, ptr noundef %3, ptr noundef %4, ptr noundef %5) #9
  br label %52

19:                                               ; preds = %9
  %20 = tail call ptr @OSSL_STORE_LOADER_fetch(ptr noundef %2, ptr noundef nonnull %spec.store.select, ptr noundef %3) #9
  %.not64 = icmp eq ptr %20, null
  br i1 %.not64, label %.thread72, label %21

21:                                               ; preds = %19
  %22 = tail call ptr @OSSL_STORE_LOADER_get0_provider(ptr noundef nonnull %20) #9
  %23 = tail call ptr @OSSL_PROVIDER_get0_provider_ctx(ptr noundef %22) #9
  %24 = tail call ptr @ossl_core_bio_new_from_bio(ptr noundef %0) #9
  %25 = icmp eq ptr %24, null
  br i1 %25, label %33, label %26

26:                                               ; preds = %21
  %27 = getelementptr inbounds nuw i8, ptr %20, i64 144
  %28 = load ptr, ptr %27, align 8, !tbaa !74
  %29 = icmp eq ptr %28, null
  br i1 %29, label %33, label %30

30:                                               ; preds = %26
  %31 = tail call ptr %28(ptr noundef %23, ptr noundef nonnull %24) #9
  %32 = icmp eq ptr %31, null
  br i1 %32, label %33, label %34

33:                                               ; preds = %30, %26, %21
  tail call void @OSSL_STORE_LOADER_free(ptr noundef nonnull %20) #9
  br label %loader_set_params.exit

34:                                               ; preds = %30
  %.not.i = icmp eq ptr %6, null
  br i1 %.not.i, label %39, label %35

35:                                               ; preds = %34
  %36 = getelementptr inbounds nuw i8, ptr %20, i64 160
  %37 = load ptr, ptr %36, align 8, !tbaa !18
  %38 = tail call i32 %37(ptr noundef nonnull %31, ptr noundef nonnull %6) #9
  %.not13.i = icmp eq i32 %38, 0
  br i1 %.not13.i, label %47, label %39

39:                                               ; preds = %35, %34
  %.not14.i = icmp eq ptr %3, null
  br i1 %.not14.i, label %loader_set_params.exit, label %40

40:                                               ; preds = %39
  call void @llvm.lifetime.start.p0(i64 80, ptr nonnull %10) #9
  %41 = tail call ptr @OSSL_PARAM_locate_const(ptr noundef %6, ptr noundef nonnull @.str.13) #9
  %.not15.i = icmp eq ptr %41, null
  br i1 %.not15.i, label %42, label %.thread.i

.thread.i:                                        ; preds = %40
  call void @llvm.lifetime.end.p0(i64 80, ptr nonnull %10) #9
  br label %loader_set_params.exit

42:                                               ; preds = %40
  call void @OSSL_PARAM_construct_utf8_string(ptr dead_on_unwind nonnull writable sret(%struct.ossl_param_st) align 8 %10, ptr noundef nonnull @.str.13, ptr noundef nonnull %3, i64 noundef 0) #9
  %43 = getelementptr inbounds nuw i8, ptr %10, i64 40
  call void @llvm.lifetime.start.p0(i64 40, ptr nonnull %11) #9
  call void @OSSL_PARAM_construct_end(ptr dead_on_unwind nonnull writable sret(%struct.ossl_param_st) align 8 %11) #9
  call void @llvm.memcpy.p0.p0.i64(ptr noundef nonnull align 8 dereferenceable(40) %43, ptr noundef nonnull align 8 dereferenceable(40) %11, i64 40, i1 false), !tbaa.struct !19
  call void @llvm.lifetime.end.p0(i64 40, ptr nonnull %11) #9
  %44 = getelementptr inbounds nuw i8, ptr %20, i64 160
  %45 = load ptr, ptr %44, align 8, !tbaa !18
  %46 = call i32 %45(ptr noundef nonnull %31, ptr noundef nonnull %10) #9
  %.not16.not.i = icmp eq i32 %46, 0
  call void @llvm.lifetime.end.p0(i64 80, ptr nonnull %10) #9
  br i1 %.not16.not.i, label %47, label %loader_set_params.exit

47:                                               ; preds = %42, %35
  %48 = getelementptr inbounds nuw i8, ptr %20, i64 184
  %49 = load ptr, ptr %48, align 8, !tbaa !24
  %50 = call i32 %49(ptr noundef nonnull %31) #9
  call void @OSSL_STORE_LOADER_free(ptr noundef nonnull %20) #9
  br label %loader_set_params.exit

loader_set_params.exit:                           ; preds = %39, %42, %.thread.i, %47, %33
  %.152 = phi ptr [ null, %33 ], [ null, %47 ], [ %20, %.thread.i ], [ %20, %42 ], [ %20, %39 ]
  %.3 = phi ptr [ null, %33 ], [ %31, %47 ], [ %31, %.thread.i ], [ %31, %42 ], [ %31, %39 ]
  %51 = call i32 @ossl_core_bio_free(ptr noundef %24) #9
  br label %52

52:                                               ; preds = %15, %loader_set_params.exit
  %.051 = phi ptr [ %.152, %loader_set_params.exit ], [ null, %15 ]
  %.1 = phi ptr [ %.3, %loader_set_params.exit ], [ %18, %15 ]
  %.049 = phi ptr [ %.152, %loader_set_params.exit ], [ %14, %15 ]
  %53 = icmp eq ptr %.1, null
  br i1 %53, label %.thread72, label %55

.thread72:                                        ; preds = %19, %52
  %54 = call i32 @ERR_clear_last_mark() #9
  br label %72

55:                                               ; preds = %52
  %56 = call noalias ptr @CRYPTO_zalloc(i64 noundef 120, ptr noundef nonnull @.str.2, i32 noundef 1066) #9
  %57 = icmp eq ptr %56, null
  br i1 %57, label %58, label %60

58:                                               ; preds = %55
  %59 = call i32 @ERR_clear_last_mark() #9
  br label %72

60:                                               ; preds = %55
  %.not66 = icmp eq ptr %4, null
  br i1 %.not66, label %66, label %61

61:                                               ; preds = %60
  %62 = getelementptr inbounds nuw i8, ptr %56, i64 72
  %63 = call i32 @ossl_pw_set_ui_method(ptr noundef nonnull %62, ptr noundef nonnull %4, ptr noundef %5) #9
  %.not67 = icmp eq i32 %63, 0
  br i1 %.not67, label %64, label %66

64:                                               ; preds = %61
  %65 = call i32 @ERR_clear_last_mark() #9
  call void @CRYPTO_free(ptr noundef nonnull %56, ptr noundef nonnull @.str.2, i32 noundef 1074) #9
  br label %72

66:                                               ; preds = %61, %60
  %67 = getelementptr inbounds nuw i8, ptr %56, i64 8
  store ptr %.051, ptr %67, align 8, !tbaa !33
  store ptr %.049, ptr %56, align 8, !tbaa !34
  %68 = getelementptr inbounds nuw i8, ptr %56, i64 16
  store ptr %.1, ptr %68, align 8, !tbaa !35
  %69 = getelementptr inbounds nuw i8, ptr %56, i64 24
  store ptr %7, ptr %69, align 8, !tbaa !36
  %70 = getelementptr inbounds nuw i8, ptr %56, i64 32
  store ptr %8, ptr %70, align 8, !tbaa !37
  %71 = call i32 @ERR_pop_to_mark() #9
  br label %72

72:                                               ; preds = %66, %64, %58, %.thread72
  %.0 = phi ptr [ null, %.thread72 ], [ null, %58 ], [ %56, %66 ], [ null, %64 ]
  ret ptr %.0
}